; Function Attrs: mustprogress nounwind uwtable
define void @_ZN3net10SpdyFramer10CharBufferD2Ev(ptr noundef nonnull align 8 captures(none) dereferenceable(24) %0) unnamed_addr #6 align 2 personality ptr @__gxx_personality_v0 {
  %2 = load ptr, ptr %0, align 8, !tbaa !110
  %.not.i = icmp eq ptr %2, null
  br i1 %.not.i, label %_ZNSt10unique_ptrIA_cSt14default_deleteIS0_EED2Ev.exit, label %_ZNKSt14default_deleteIA_cEclIcEENSt9enable_ifIXsr14is_convertibleIPA_T_PS0_EE5valueEvE4typeEPS4_.exit.i

_ZNKSt14default_deleteIA_cEclIcEENSt9enable_ifIXsr14is_convertibleIPA_T_PS0_EE5valueEvE4typeEPS4_.exit.i: ; preds = %1
  tail call void @_ZdaPv(ptr noundef nonnull %2) #26
  br label %_ZNSt10unique_ptrIA_cSt14default_deleteIS0_EED2Ev.exit

_ZNSt10unique_ptrIA_cSt14default_deleteIS0_EED2Ev.exit: ; preds = %1, %_ZNKSt14default_deleteIA_cEclIcEENSt9enable_ifIXsr14is_convertibleIPA_T_PS0_EE5valueEvE4typeEPS4_.exit.i
  store ptr null, ptr %0, align 8, !tbaa !110
  ret void
}